; ModuleID = '36/1030.c'
source_filename = "36/1030.c"
target datalayout = "e-m:e-p270:32:32-p271:32:32-p272:64:64-i64:64-f80:128-n8:16:32:64-S128"
target triple = "x86_64-pc-linux-gnu"

@.str = private unnamed_addr constant [6 x i8] c"%s %s\00", align 1
@.str.1 = private unnamed_addr constant [4 x i8] c"NO\0A\00", align 1
@.str.2 = private unnamed_addr constant [5 x i8] c"YES\0A\00", align 1

; Function Attrs: noinline nounwind uwtable
define dso_local i32 @main() #0 {
  %1 = alloca i32, align 4
  %2 = alloca [100 x i8], align 16
  %3 = alloca [100 x i8], align 16
  %4 = alloca i8*, align 8
  %5 = alloca i8*, align 8
  %6 = alloca i32, align 4
  store i32 0, i32* %1, align 4
  %7 = getelementptr inbounds [100 x i8], [100 x i8]* %2, i64 0, i64 0
  store i8* %7, i8** %4, align 8
  %8 = getelementptr inbounds [100 x i8], [100 x i8]* %3, i64 0, i64 0
  store i8* %8, i8** %5, align 8
  %9 = load i8*, i8** %4, align 8
  %10 = load i8*, i8** %5, align 8
  %11 = call i32 (i8*, ...) @__isoc99_scanf(i8* getelementptr inbounds ([6 x i8], [6 x i8]* @.str, i64 0, i64 0), i8* %9, i8* %10)
  %12 = getelementptr inbounds [100 x i8], [100 x i8]* %2, i64 0, i64 0
  %13 = call i64 @strlen(i8* %12) #3
  %14 = getelementptr inbounds [100 x i8], [100 x i8]* %3, i64 0, i64 0
  %15 = call i64 @strlen(i8* %14) #3
  %16 = icmp eq i64 %13, %15
  br i1 %16, label %17, label %59

17:                                               ; preds = %0
  br label %18

18:                                               ; preds = %50, %17
  %19 = load i8*, i8** %4, align 8
  %20 = load i8, i8* %19, align 1
  %21 = sext i8 %20 to i32
  %22 = icmp ne i32 %21, 0
  br i1 %22, label %23, label %53

23:                                               ; preds = %18
  %24 = getelementptr inbounds [100 x i8], [100 x i8]* %3, i64 0, i64 0
  store i8* %24, i8** %5, align 8
  store i32 0, i32* %6, align 4
  br label %25

25:                                               ; preds = %41, %23
  %26 = load i8*, i8** %5, align 8
  %27 = load i8, i8* %26, align 1
  %28 = sext i8 %27 to i32
  %29 = icmp ne i32 %28, 0
  br i1 %29, label %30, label %44

30:                                               ; preds = %25
  %31 = load i8*, i8** %4, align 8
  %32 = load i8, i8* %31, align 1
  %33 = sext i8 %32 to i32
  %34 = load i8*, i8** %5, align 8
  %35 = load i8, i8* %34, align 1
  %36 = sext i8 %35 to i32
  %37 = icmp eq i32 %33, %36
  br i1 %37, label %38, label %40

38:                                               ; preds = %30
  %39 = load i8*, i8** %5, align 8
  store i8 48, i8* %39, align 1
  store i32 1, i32* %6, align 4
  br label %44

40:                                               ; preds = %30
  br label %41

41:                                               ; preds = %40
  %42 = load i8*, i8** %5, align 8
  %43 = getelementptr inbounds i8, i8* %42, i32 1
  store i8* %43, i8** %5, align 8
  br label %25

44:                                               ; preds = %38, %25
  %45 = load i32, i32* %6, align 4
  %46 = icmp eq i32 %45, 0
  br i1 %46, label %47, label %49

47:                                               ; preds = %44
  %48 = call i32 (i8*, ...) @printf(i8* getelementptr inbounds ([4 x i8], [4 x i8]* @.str.1, i64 0, i64 0))
  store i32 2, i32* %6, align 4
  br label %53

49:                                               ; preds = %44
  br label %50

50:                                               ; preds = %49
  %51 = load i8*, i8** %4, align 8
  %52 = getelementptr inbounds i8, i8* %51, i32 1
  store i8* %52, i8** %4, align 8
  br label %18

53:                                               ; preds = %47, %18
  %54 = load i32, i32* %6, align 4
  %55 = icmp ne i32 %54, 2
  br i1 %55, label %56, label %58

56:                                               ; preds = %53
  %57 = call i32 (i8*, ...) @printf(i8* getelementptr inbounds ([5 x i8], [5 x i8]* @.str.2, i64 0, i64 0))
  br label %58

58:                                               ; preds = %56, %53
  br label %61

59:                                               ; preds = %0
  %60 = call i32 (i8*, ...) @printf(i8* getelementptr inbounds ([4 x i8], [4 x i8]* @.str.1, i64 0, i64 0))
  br label %61

61:                                               ; preds = %59, %58
  ret i32 0
}

declare dso_local i32 @__isoc99_scanf(i8*, ...) #1

; Function Attrs: nounwind readonly
declare dso_local i64 @strlen(i8*) #2

declare dso_local i32 @printf(i8*, ...) #1


!llvm.module.flags = !{!0}
!llvm.ident = !{!1}

!0 = !{i32 1, !"wchar_size", i32 4}
!1 = !{!"clang version 10.0.0-4ubuntu1 "}
