; ModuleID = 'source-C-CXX/35/1030.c'
source_filename = "source-C-CXX/35/1030.c"
target datalayout = "e-m:e-p270:32:32-p271:32:32-p272:64:64-i64:64-f80:128-n8:16:32:64-S128"
target triple = "x86_64-pc-linux-gnu"

@.str = private unnamed_addr constant [6 x i8] c"%s %s\00", align 1
@str.3 = private unnamed_addr constant [4 x i8] c"YES\00", align 1
@str.4 = private unnamed_addr constant [3 x i8] c"NO\00", align 1

; Function Attrs: nofree nounwind sspstrong uwtable
define dso_local i32 @main() local_unnamed_addr #0 {
  %1 = alloca [100 x i8], align 16
  %2 = alloca [100 x i8], align 16
  %3 = getelementptr inbounds [100 x i8], [100 x i8]* %1, i64 0, i64 0
  call void @llvm.lifetime.start.p0i8(i64 100, i8* nonnull %3) #5
  %4 = getelementptr inbounds [100 x i8], [100 x i8]* %2, i64 0, i64 0
  call void @llvm.lifetime.start.p0i8(i64 100, i8* nonnull %4) #5
  %5 = call i32 (i8*, ...) @__isoc99_scanf(i8* getelementptr inbounds ([6 x i8], [6 x i8]* @.str, i64 0, i64 0), i8* nonnull %3, i8* nonnull %4)
  %6 = call i64 @strlen(i8* noundef nonnull %3) #6
  %7 = call i64 @strlen(i8* noundef nonnull %4) #6
  %8 = icmp eq i64 %6, %7
  br i1 %8, label %9, label %29

9:                                                ; preds = %0
  %10 = load i8, i8* %3, align 16, !tbaa !5
  %11 = icmp eq i8 %10, 0
  br i1 %11, label %29, label %12

12:                                               ; preds = %9, %25
  %13 = phi i8 [ %27, %25 ], [ %10, %9 ]
  %14 = phi i8* [ %26, %25 ], [ %3, %9 ]
  %15 = load i8, i8* %4, align 16, !tbaa !5
  %16 = icmp eq i8 %15, 0
  br i1 %16, label %29, label %17

17:                                               ; preds = %12, %21
  %18 = phi i8 [ %23, %21 ], [ %15, %12 ]
  %19 = phi i8* [ %22, %21 ], [ %4, %12 ]
  %20 = icmp eq i8 %13, %18
  br i1 %20, label %25, label %21

21:                                               ; preds = %17
  %22 = getelementptr inbounds i8, i8* %19, i64 1
  %23 = load i8, i8* %22, align 1, !tbaa !5
  %24 = icmp eq i8 %23, 0
  br i1 %24, label %29, label %17, !llvm.loop !8

25:                                               ; preds = %17
  store i8 48, i8* %19, align 1, !tbaa !5
  %26 = getelementptr inbounds i8, i8* %14, i64 1
  %27 = load i8, i8* %26, align 1, !tbaa !5
  %28 = icmp eq i8 %27, 0
  br i1 %28, label %29, label %12, !llvm.loop !10

29:                                               ; preds = %25, %12, %21, %0, %9
  %30 = phi i8* [ getelementptr inbounds ([4 x i8], [4 x i8]* @str.3, i64 0, i64 0), %9 ], [ getelementptr inbounds ([3 x i8], [3 x i8]* @str.4, i64 0, i64 0), %0 ], [ getelementptr inbounds ([3 x i8], [3 x i8]* @str.4, i64 0, i64 0), %21 ], [ getelementptr inbounds ([3 x i8], [3 x i8]* @str.4, i64 0, i64 0), %12 ], [ getelementptr inbounds ([4 x i8], [4 x i8]* @str.3, i64 0, i64 0), %25 ]
  %31 = call i32 @puts(i8* nonnull dereferenceable(1) %30)
  call void @llvm.lifetime.end.p0i8(i64 100, i8* nonnull %4) #5
  call void @llvm.lifetime.end.p0i8(i64 100, i8* nonnull %3) #5
  ret i32 0
}

; Function Attrs: argmemonly mustprogress nofree nosync nounwind willreturn
declare void @llvm.lifetime.start.p0i8(i64 immarg, i8* nocapture) #1

; Function Attrs: nofree nounwind
declare noundef i32 @__isoc99_scanf(i8* nocapture noundef readonly, ...) local_unnamed_addr #2

; Function Attrs: argmemonly mustprogress nofree nounwind readonly willreturn
declare i64 @strlen(i8* nocapture) local_unnamed_addr #3

; Function Attrs: argmemonly mustprogress nofree nosync nounwind willreturn
declare void @llvm.lifetime.end.p0i8(i64 immarg, i8* nocapture) #1

; Function Attrs: nofree nounwind
declare noundef i32 @puts(i8* nocapture noundef readonly) local_unnamed_addr #4


!llvm.module.flags = !{!0, !1, !2, !3}
!llvm.ident = !{!4}

!0 = !{i32 1, !"wchar_size", i32 4}
!1 = !{i32 7, !"PIC Level", i32 2}
!2 = !{i32 7, !"PIE Level", i32 2}
!3 = !{i32 7, !"uwtable", i32 1}
!4 = !{!"clang version 13.0.0"}
!5 = !{!6, !6, i64 0}
!6 = !{!"omnipotent char", !7, i64 0}
!7 = !{!"Simple C/C++ TBAA"}
!8 = distinct !{!8, !9}
!9 = !{!"llvm.loop.mustprogress"}
!10 = distinct !{!10, !9}
